(dp0
Vmcell
p1
(dp2
Vmaterials
p3
(dp4
Vmaterial_dict
p5
(dp6
ssVdefine_reactions
p7
(dp8
Vdata_model_version
p9
VDM_2014_10_24_1638
p10
sVreaction_list
p11
(lp12
(dp13
Vvariable_rate_valid
p14
I00
sg9
VDM_2018_01_11_1330
p15
sVreactants
p16
Vvol1,+empty'
p17
sVvariable_rate_text
p18
V
p19
sVproducts
p20
Vvol2'
p21
sVdescription
p22
g19
sVfwd_rate
p23
V1e7
p24
sVname
p25
Vvol1,+empty' -> vol2'
p26
sVbkwd_rate
p27
g19
sVvariable_rate_switch
p28
I00
sVvariable_rate
p29
g19
sVrxn_type
p30
Virreversible
p31
sVrxn_name
p32
g19
sassVmodel_objects
p33
(dp34
g9
g15
sVmodel_object_list
p35
(lp36
(dp37
Vdynamic_display_source
p38
Vscript
p39
sVdynamic
p40
I00
sVscript_name
p41
g19
sg25
VPlane
p42
sg22
g19
sVparent_object
p43
g19
sVobject_source
p44
Vblender
p45
sVmembrane_name
p46
g19
sa(dp47
g38
Vscript
p48
sg40
I00
sg41
g19
sg25
VCube
p49
sg22
g19
sg43
g19
sg44
Vblender
p50
sg46
g19
sassg9
VDM_2017_06_23_1300
p51
sVinitialization
p52
(dp53
Vcenter_molecules_on_grid
p54
I00
sVnotifications
p55
(dp56
Viteration_report
p57
I01
sVmolecule_collision_report
p58
I00
sVvarying_probability_report
p59
I01
sVprogress_report
p60
I01
sVdiffusion_constant_report
p61
VBRIEF
p62
sVprobability_report
p63
VON
p64
sVfile_output_report
p65
I00
sVrelease_event_report
p66
I01
sVprobability_report_threshold
p67
V0
p68
sVfinal_summary
p69
I01
sVbox_triangulation_report
p70
I00
sVall_notifications
p71
VINDIVIDUAL
p72
sVpartition_location_report
p73
I00
ssVsurface_grid_density
p74
V10000
p75
sVvacancy_search_distance
p76
g19
sVradial_directions
p77
g19
sVmicroscopic_reversibility
p78
VOFF
p79
sVspace_step
p80
g19
sg9
VDM_2017_11_18_0130
p81
sVcommand_options
p82
g19
sVaccurate_3d_reactions
p83
I01
sVinteraction_radius
p84
g19
sVtime_step_max
p85
g19
sVexport_all_ascii
p86
I00
sVradial_subdivisions
p87
g19
sVpartitions
p88
(dp89
Vz_end
p90
V1
p91
sVx_start
p92
V-1
p93
sVz_start
p94
V-1
p95
sVy_start
p96
V-1
p97
sg9
VDM_2016_04_15_1600
p98
sVrecursion_flag
p99
I00
sVx_step
p100
V0.05
p101
sVy_step
p102
V0.05
p103
sVy_end
p104
g91
sVz_step
p105
V0.05
p106
sVinclude
p107
I00
sVx_end
p108
g91
ssVwarnings
p109
(dp110
Vhigh_reaction_probability
p111
VIGNORED
p112
sVlifetime_threshold
p113
V50
p114
sVnegative_diffusion_constant
p115
VWARNING
p116
sVdegenerate_polygons
p117
VWARNING
p118
sVhigh_probability_threshold
p119
g91
sVlarge_molecular_displacement
p120
VWARNING
p121
sVuseless_volume_orientation
p122
VWARNING
p123
sVnegative_reaction_rate
p124
VWARNING
p125
sVlifetime_too_short
p126
VWARNING
p127
sVmissed_reaction_threshold
p128
V0.001
p129
sVall_warnings
p130
VINDIVIDUAL
p131
sVmissed_reactions
p132
VWARNING
p133
sVmissing_surface_orientation
p134
VERROR
p135
ssVtime_step
p136
V1e-6
p137
sViterations
p138
V1000
p139
ssVscripting
p140
(dp141
Vscript_texts
p142
(dp143
sVmcell4_scripting_list
p144
(lp145
sVforce_property_update
p146
I01
sVscripting_list
p147
(lp148
sVdm_internal_file_name
p149
g19
sg9
VDM_2017_11_30_1830
p150
sVignore_cellblender_data
p151
I00
sVdm_external_file_name
p152
g19
ssVapi_version
p153
L0L
sVsimulation_control
p154
(dp155
Vprocesses_list
p156
(lp157
sg9
VDM_2017_11_22_1617
p158
sg25
g19
sVsim_engines
p159
(lp160
sVend_seed
p161
g91
sVstart_seed
p162
g91
sVrun_limit
p163
V12
p164
sVexport_format
p165
Vmcell_mdl_modular
p166
ssVperiodic_boundary_conditions
p167
(dp168
Vperi_x
p169
I01
sg90
g68
sg92
g68
sg94
g68
sg96
g68
sg9
VDM_2020_02_21_1900
p170
sg104
g68
sVperiodic_traditional
p171
I01
sg107
I00
sVperi_z
p172
I01
sg108
g68
sVperi_y
p173
I01
ssVreaction_data_output
p174
(dp175
Vplot_layout
p176
V plot 
p177
sVcombine_seeds
p178
I01
sVrxn_step
p179
g19
sValways_generate
p180
I01
sVreaction_output_list
p181
(lp182
sg9
VDM_2016_03_15_1800
p183
sVplot_legend
p184
g68
sVoutput_buf_size
p185
g19
sVmol_colors
p186
I00
ssVmodify_surface_regions
p187
(dp188
g9
g10
sVmodify_surface_regions_list
p189
(lp190
(dp191
Vregion_name
p192
g19
sVregion_selection
p193
VALL
p194
sg25
VSurface Class: empty   Object: Plane   ALL
p195
sVsurf_class_name
p196
Vempty
p197
sg9
g15
sVobject_name
p198
VPlane
p199
sg22
g19
sassVmol_viz
p200
(dp201
Vseed_list
p202
(lp203
Vseed_00001
p204
asVcolor_list
p205
(lp206
(lp207
F0.800000011920929
aF0.0
aF0.0
aa(lp208
F0.0
aF0.800000011920929
aF0.0
aa(lp209
F0.0
aF0.0
aF0.800000011920929
aa(lp210
F0.0
aF0.800000011920929
aF0.800000011920929
aa(lp211
F0.800000011920929
aF0.0
aF0.800000011920929
aa(lp212
F0.800000011920929
aF0.800000011920929
aF0.0
aa(lp213
F1.0
aF1.0
aF1.0
aa(lp214
F0.0
aF0.0
aF0.0
aasVfile_name
p215
VScene.cellbin.0007.dat
p216
sVfile_index
p217
L7L
sVcolor_index
p218
L0L
sVfile_start_index
p219
L0L
sg9
VDM_2015_04_13_1700
p220
sVfile_num
p221
L8L
sVactive_seed_index
p222
L0L
sVfile_stop_index
p223
L7L
sVmanual_select_viz_dir
p224
I00
sVfile_step_index
p225
L1L
sVfile_dir
p226
Vsc_rxn_files/mcell/output_data/viz_data/seed_00001
p227
sVviz_list
p228
(lp229
Vmol_vol1
p230
asVviz_enable
p231
I01
sVrender_and_save
p232
I00
ssVcellblender_source_sha1
p233
V0f3aa9d05b30319b6245827aa2388a06deebf96d
p234
sVgeometrical_objects
p235
(dp236
Vobject_list
p237
(lp238
(dp239
Vvertex_list
p240
(lp241
(lp242
F-1.100000023841858
aF-1.100000023841858
aF0.0
aa(lp243
F1.100000023841858
aF-1.100000023841858
aF0.0
aa(lp244
F-1.100000023841858
aF1.100000023841858
aF0.0
aa(lp245
F1.100000023841858
aF1.100000023841858
aF0.0
aasVlocation
p246
(lp247
L0L
aL0L
aL0L
asVname
p248
VPlane
p249
sVelement_connections
p250
(lp251
(lp252
L1L
aL2L
aL0L
aa(lp253
L1L
aL3L
aL2L
aasa(dp254
g240
(lp255
(lp256
F-1.0
aF-1.0
aF-1.0
aa(lp257
F-1.0
aF-1.0
aF1.0
aa(lp258
F-1.0
aF1.0
aF-1.0
aa(lp259
F-1.0
aF1.0
aF1.0
aa(lp260
F1.0
aF-1.0
aF-1.0
aa(lp261
F1.0
aF-1.0
aF1.0
aa(lp262
F1.0
aF1.0
aF-1.0
aa(lp263
F1.0
aF1.0
aF1.0
aasg246
(lp264
L0L
aL0L
aL0L
asg248
VCube
p265
sg250
(lp266
(lp267
L1L
aL2L
aL0L
aa(lp268
L3L
aL6L
aL2L
aa(lp269
L7L
aL4L
aL6L
aa(lp270
L5L
aL0L
aL4L
aa(lp271
L6L
aL0L
aL2L
aa(lp272
L3L
aL5L
aL7L
aa(lp273
L1L
aL3L
aL2L
aa(lp274
L3L
aL7L
aL6L
aa(lp275
L7L
aL5L
aL4L
aa(lp276
L5L
aL1L
aL0L
aa(lp277
L6L
aL4L
aL0L
aa(lp278
L3L
aL1L
aL5L
aasassVdefine_molecules
p279
(dp280
g9
g10
sVmolecule_list
p281
(lp282
(dp283
g9
VDM_2018_10_16_1632
p284
sVmol_bngl_label
p285
g19
sVbngl_component_list
p286
(lp287
sVdisplay
p288
(dp289
Vcolor
p290
(lp291
F1.0
aF0.0
aF0.0
asVscale
p292
F1.0
sVemit
p293
F0.0
sVglyph
p294
VSphere_1
p295
ssVmol_name
p296
Vvol1
p297
sVmaximum_step_length
p298
g19
sVdiffusion_constant
p299
V1e-5
p300
sg22
g19
sVcustom_time_step
p301
g19
sVtarget_only
p302
I00
sVcustom_space_step
p303
g19
sVexport_viz
p304
I00
sVspatial_structure
p305
VNone
p306
sVmol_type
p307
V3D
p308
sa(dp309
g9
g284
sg285
g19
sg286
(lp310
sg288
(dp311
g290
(lp312
F0.0
aF1.0
aF0.0
asg292
F1.0
sg293
F0.0
sg294
VSphere_1
p313
ssg296
Vvol2
p314
sg298
g19
sg299
V1e-6
p315
sg22
g19
sg301
g19
sg302
I00
sg303
g19
sg304
I00
sg305
VNone
p316
sg307
V3D
p317
sasVmolmaker
p318
(dp319
Vmake_materials
p320
I01
sVskip_var_comp_index
p321
L-1L
sVshow_key_planes
p322
I01
sVdynamic_rotation
p323
I00
sg9
VDM_2020_01_10_1930
p324
sVskip_fixed_comp_index
p325
L-1L
sVprint_debug
p326
I00
sVmolecule_definition
p327
g19
sVcellblender_colors
p328
I01
sVbending_rotation
p329
I01
sVshow_text_interface
p330
I00
sVcomp_loc_text_name
p331
g19
sVmolcomp_list
p332
(lp333
sVmolecule_text_name
p334
g19
sVskip_rotation
p335
I00
sVaxial_rotation
p336
I01
sVaverage_coincident
p337
I00
sssVparameter_system
p338
(dp339
Vmodel_parameters
p340
(lp341
sV_extras
p342
(dp343
Vordered_id_names
p344
(lp345
sssVcellblender_version
p346
V0.1.54
p347
sVdefine_release_patterns
p348
(dp349
g9
g10
sVrelease_pattern_list
p350
(lp351
ssVviz_output
p352
(dp353
Vstep
p354
g91
sVexport_all
p355
I01
sVstart
p356
g68
sg9
g10
sVall_iterations
p357
I01
sVend
p358
g91
ssVrelease_sites
p359
(dp360
Vrelease_site_list
p361
(lp362
(dp363
Vshape
p364
VOBJECT
p365
sVsite_diameter
p366
g68
sVquantity_type
p367
VNUMBER_TO_RELEASE
p368
sVrelease_probability
p369
g91
sVlocation_x
p370
g68
sVpattern
p371
g19
sg9
g15
sVlocation_y
p372
g68
sVobject_expr
p373
VCube
p374
sg25
Vvol1_rel
p375
sg22
g19
sVmolecule
p376
Vvol1
p377
sVorient
p378
V'
p379
sVstddev
p380
g68
sVquantity
p381
V2000
p382
sVpoints_list
p383
(lp384
sVlocation_z
p385
g68
sasg9
g10
ssVdefine_surface_classes
p386
(dp387
Vsurface_class_list
p388
(lp389
(dp390
g9
g15
sg25
Vempty
p391
sg22
g19
sVsurface_class_prop_list
p392
(lp393
sasg9
g10
ssVblender_version
p394
(lp395
L2L
aL79L
aL0L
asVmodel_language
p396
Vmcell4
p397
ss.